target datalayout = "e-m:e-p270:32:32-p271:32:32-p272:64:64-i64:64-i128:128-f80:128-n8:16:32:64-S128"
target triple = "x86_64-pc-linux-gnu"

%struct.err_state_st = type { [16 x i32], [16 x i32], [16 x i64], [16 x ptr], [16 x i64], [16 x i32], [16 x ptr], [16 x i32], [16 x ptr], i32, i32 }

@.str.7 = private unnamed_addr constant [34 x i8] c"../openssl/crypto/err/err_local.h\00", align 1

; Function Attrs: inlinehint nounwind uwtable
define internal void @err_set_data(ptr noundef %0, i64 noundef %1, ptr noundef %2, i64 noundef %3, i32 noundef %4) #2 {
  %6 = alloca ptr, align 8
  %7 = alloca i64, align 8
  %8 = alloca ptr, align 8
  %9 = alloca i64, align 8
  %10 = alloca i32, align 4
  store ptr %0, ptr %6, align 8, !tbaa !3
  store i64 %1, ptr %7, align 8, !tbaa !12
  store ptr %2, ptr %8, align 8, !tbaa !16
  store i64 %3, ptr %9, align 8, !tbaa !12
  store i32 %4, ptr %10, align 4, !tbaa !8
  %11 = load ptr, ptr %6, align 8, !tbaa !3
  %12 = getelementptr inbounds nuw %struct.err_state_st, ptr %11, i32 0, i32 5
  %13 = load i64, ptr %7, align 8, !tbaa !12
  %14 = getelementptr inbounds nuw [16 x i32], ptr %12, i64 0, i64 %13
  %15 = load i32, ptr %14, align 4, !tbaa !8
  %16 = and i32 %15, 1
  %17 = icmp ne i32 %16, 0
  br i1 %17, label %18, label %24

18:                                               ; preds = %5
  %19 = load ptr, ptr %6, align 8, !tbaa !3
  %20 = getelementptr inbounds nuw %struct.err_state_st, ptr %19, i32 0, i32 3
  %21 = load i64, ptr %7, align 8, !tbaa !12
  %22 = getelementptr inbounds nuw [16 x ptr], ptr %20, i64 0, i64 %21
  %23 = load ptr, ptr %22, align 8, !tbaa !14
  call void @CRYPTO_free(ptr noundef %23, ptr noundef @.str.7, i32 noundef 78)
  br label %24

24:                                               ; preds = %18, %5
  %25 = load ptr, ptr %8, align 8, !tbaa !16
  %26 = load ptr, ptr %6, align 8, !tbaa !3
  %27 = getelementptr inbounds nuw %struct.err_state_st, ptr %26, i32 0, i32 3
  %28 = load i64, ptr %7, align 8, !tbaa !12
  %29 = getelementptr inbounds nuw [16 x ptr], ptr %27, i64 0, i64 %28
  store ptr %25, ptr %29, align 8, !tbaa !14
  %30 = load i64, ptr %9, align 8, !tbaa !12
  %31 = load ptr, ptr %6, align 8, !tbaa !3
  %32 = getelementptr inbounds nuw %struct.err_state_st, ptr %31, i32 0, i32 4
  %33 = load i64, ptr %7, align 8, !tbaa !12
  %34 = getelementptr inbounds nuw [16 x i64], ptr %32, i64 0, i64 %33
  store i64 %30, ptr %34, align 8, !tbaa !12
  %35 = load i32, ptr %10, align 4, !tbaa !8
  %36 = load ptr, ptr %6, align 8, !tbaa !3
  %37 = getelementptr inbounds nuw %struct.err_state_st, ptr %36, i32 0, i32 5
  %38 = load i64, ptr %7, align 8, !tbaa !12
  %39 = getelementptr inbounds nuw [16 x i32], ptr %37, i64 0, i64 %38
  store i32 %35, ptr %39, align 4, !tbaa !8
  ret void
}

; Function Attrs: inlinehint nounwind uwtable
define internal void @err_clear_data(ptr noundef %0, i64 noundef %1, i32 noundef %2) #2 {
  %4 = alloca ptr, align 8
  %5 = alloca i64, align 8
  %6 = alloca i32, align 4
  store ptr %0, ptr %4, align 8, !tbaa !3
  store i64 %1, ptr %5, align 8, !tbaa !12
  store i32 %2, ptr %6, align 4, !tbaa !8
  %7 = load ptr, ptr %4, align 8, !tbaa !3
  %8 = getelementptr inbounds nuw %struct.err_state_st, ptr %7, i32 0, i32 5
  %9 = load i64, ptr %5, align 8, !tbaa !12
  %10 = getelementptr inbounds nuw [16 x i32], ptr %8, i64 0, i64 %9
  %11 = load i32, ptr %10, align 4, !tbaa !8
  %12 = and i32 %11, 1
  %13 = icmp ne i32 %12, 0
  br i1 %13, label %14, label %55

14:                                               ; preds = %3
  %15 = load i32, ptr %6, align 4, !tbaa !8
  %16 = icmp ne i32 %15, 0
  br i1 %16, label %17, label %35

17:                                               ; preds = %14
  %18 = load ptr, ptr %4, align 8, !tbaa !3
  %19 = getelementptr inbounds nuw %struct.err_state_st, ptr %18, i32 0, i32 3
  %20 = load i64, ptr %5, align 8, !tbaa !12
  %21 = getelementptr inbounds nuw [16 x ptr], ptr %19, i64 0, i64 %20
  %22 = load ptr, ptr %21, align 8, !tbaa !14
  call void @CRYPTO_free(ptr noundef %22, ptr noundef @.str.7, i32 noundef 25)
  %23 = load ptr, ptr %4, align 8, !tbaa !3
  %24 = getelementptr inbounds nuw %struct.err_state_st, ptr %23, i32 0, i32 3
  %25 = load i64, ptr %5, align 8, !tbaa !12
  %26 = getelementptr inbounds nuw [16 x ptr], ptr %24, i64 0, i64 %25
  store ptr null, ptr %26, align 8, !tbaa !14
  %27 = load ptr, ptr %4, align 8, !tbaa !3
  %28 = getelementptr inbounds nuw %struct.err_state_st, ptr %27, i32 0, i32 4
  %29 = load i64, ptr %5, align 8, !tbaa !12
  %30 = getelementptr inbounds nuw [16 x i64], ptr %28, i64 0, i64 %29
  store i64 0, ptr %30, align 8, !tbaa !12
  %31 = load ptr, ptr %4, align 8, !tbaa !3
  %32 = getelementptr inbounds nuw %struct.err_state_st, ptr %31, i32 0, i32 5
  %33 = load i64, ptr %5, align 8, !tbaa !12
  %34 = getelementptr inbounds nuw [16 x i32], ptr %32, i64 0, i64 %33
  store i32 0, ptr %34, align 4, !tbaa !8
  br label %54

35:                                               ; preds = %14
  %36 = load ptr, ptr %4, align 8, !tbaa !3
  %37 = getelementptr inbounds nuw %struct.err_state_st, ptr %36, i32 0, i32 3
  %38 = load i64, ptr %5, align 8, !tbaa !12
  %39 = getelementptr inbounds nuw [16 x ptr], ptr %37, i64 0, i64 %38
  %40 = load ptr, ptr %39, align 8, !tbaa !14
  %41 = icmp ne ptr %40, null
  br i1 %41, label %42, label %53

42:                                               ; preds = %35
  %43 = load ptr, ptr %4, align 8, !tbaa !3
  %44 = getelementptr inbounds nuw %struct.err_state_st, ptr %43, i32 0, i32 3
  %45 = load i64, ptr %5, align 8, !tbaa !12
  %46 = getelementptr inbounds nuw [16 x ptr], ptr %44, i64 0, i64 %45
  %47 = load ptr, ptr %46, align 8, !tbaa !14
  %48 = getelementptr inbounds i8, ptr %47, i64 0
  store i8 0, ptr %48, align 1, !tbaa !38
  %49 = load ptr, ptr %4, align 8, !tbaa !3
  %50 = getelementptr inbounds nuw %struct.err_state_st, ptr %49, i32 0, i32 5
  %51 = load i64, ptr %5, align 8, !tbaa !12
  %52 = getelementptr inbounds nuw [16 x i32], ptr %50, i64 0, i64 %51
  store i32 1, ptr %52, align 4, !tbaa !8
  br label %53

53:                                               ; preds = %42, %35
  br label %54

54:                                               ; preds = %53, %17
  br label %68

55:                                               ; preds = %3
  %56 = load ptr, ptr %4, align 8, !tbaa !3
  %57 = getelementptr inbounds nuw %struct.err_state_st, ptr %56, i32 0, i32 3
  %58 = load i64, ptr %5, align 8, !tbaa !12
  %59 = getelementptr inbounds nuw [16 x ptr], ptr %57, i64 0, i64 %58
  store ptr null, ptr %59, align 8, !tbaa !14
  %60 = load ptr, ptr %4, align 8, !tbaa !3
  %61 = getelementptr inbounds nuw %struct.err_state_st, ptr %60, i32 0, i32 4
  %62 = load i64, ptr %5, align 8, !tbaa !12
  %63 = getelementptr inbounds nuw [16 x i64], ptr %61, i64 0, i64 %62
  store i64 0, ptr %63, align 8, !tbaa !12
  %64 = load ptr, ptr %4, align 8, !tbaa !3
  %65 = getelementptr inbounds nuw %struct.err_state_st, ptr %64, i32 0, i32 5
  %66 = load i64, ptr %5, align 8, !tbaa !12
  %67 = getelementptr inbounds nuw [16 x i32], ptr %65, i64 0, i64 %66
  store i32 0, ptr %67, align 4, !tbaa !8
  br label %68

68:                                               ; preds = %55, %54
  ret void
}

; Function Attrs: nounwind uwtable
define internal i32 @err_set_error_data_int(ptr noundef %0, i64 noundef %1, i32 noundef %2, i32 noundef %3) #0 {
  %5 = alloca i32, align 4
  %6 = alloca ptr, align 8
  %7 = alloca i64, align 8
  %8 = alloca i32, align 4
  %9 = alloca i32, align 4
  %10 = alloca ptr, align 8
  %11 = alloca i32, align 4
  store ptr %0, ptr %6, align 8, !tbaa !14
  store i64 %1, ptr %7, align 8, !tbaa !12
  store i32 %2, ptr %8, align 4, !tbaa !8
  store i32 %3, ptr %9, align 4, !tbaa !8
  call void @llvm.lifetime.start.p0(i64 8, ptr %10) #8
  %12 = call ptr @ossl_err_get_state_int()
  store ptr %12, ptr %10, align 8, !tbaa !3
  %13 = load ptr, ptr %10, align 8, !tbaa !3
  %14 = icmp eq ptr %13, null
  br i1 %14, label %15, label %16

15:                                               ; preds = %4
  store i32 0, ptr %5, align 4
  store i32 1, ptr %11, align 4
  br label %31

16:                                               ; preds = %4
  %17 = load ptr, ptr %10, align 8, !tbaa !3
  %18 = load ptr, ptr %10, align 8, !tbaa !3
  %19 = getelementptr inbounds nuw %struct.err_state_st, ptr %18, i32 0, i32 9
  %20 = load i32, ptr %19, align 8, !tbaa !29
  %21 = sext i32 %20 to i64
  %22 = load i32, ptr %9, align 4, !tbaa !8
  call void @err_clear_data(ptr noundef %17, i64 noundef %21, i32 noundef %22)
  %23 = load ptr, ptr %10, align 8, !tbaa !3
  %24 = load ptr, ptr %10, align 8, !tbaa !3
  %25 = getelementptr inbounds nuw %struct.err_state_st, ptr %24, i32 0, i32 9
  %26 = load i32, ptr %25, align 8, !tbaa !29
  %27 = sext i32 %26 to i64
  %28 = load ptr, ptr %6, align 8, !tbaa !14
  %29 = load i64, ptr %7, align 8, !tbaa !12
  %30 = load i32, ptr %8, align 4, !tbaa !8
  call void @err_set_data(ptr noundef %23, i64 noundef %27, ptr noundef %28, i64 noundef %29, i32 noundef %30)
  store i32 1, ptr %5, align 4
  store i32 1, ptr %11, align 4
  br label %31

31:                                               ; preds = %16, %15
  call void @llvm.lifetime.end.p0(i64 8, ptr %10) #8
  %32 = load i32, ptr %5, align 4
  ret i32 %32
}

; Function Attrs: nounwind uwtable
define void @ERR_set_error_data(ptr noundef %0, i32 noundef %1) #0 {
  %3 = alloca ptr, align 8
  %4 = alloca i32, align 4
  store ptr %0, ptr %3, align 8, !tbaa !14
  store i32 %1, ptr %4, align 4, !tbaa !8
  %5 = load ptr, ptr %3, align 8, !tbaa !14
  %6 = load ptr, ptr %3, align 8, !tbaa !14
  %7 = call i64 @strlen(ptr noundef %6) #10
  %8 = add i64 %7, 1
  %9 = load i32, ptr %4, align 4, !tbaa !8
  %10 = call i32 @err_set_error_data_int(ptr noundef %5, i64 noundef %8, i32 noundef %9, i32 noundef 1)
  ret void
}