; Function Attrs: nounwind uwtable
define void @ERR_set_error_data(ptr noundef %0, i32 noundef %1) local_unnamed_addr #0 {
  %3 = tail call i64 @strlen(ptr noundef nonnull dereferenceable(1) %0) #12
  %4 = add i64 %3, 1
  %5 = tail call ptr @ossl_err_get_state_int()
  %6 = icmp eq ptr %5, null
  br i1 %6, label %err_set_error_data_int.exit, label %7

7:                                                ; preds = %2
  %8 = getelementptr inbounds nuw i8, ptr %5, i64 896
  %9 = load i32, ptr %8, align 8, !tbaa !26
  %10 = sext i32 %9 to i64
  %11 = getelementptr inbounds nuw i8, ptr %5, i64 512
  %12 = getelementptr inbounds nuw [16 x i32], ptr %11, i64 0, i64 %10
  %13 = load i32, ptr %12, align 4, !tbaa !3
  %14 = and i32 %13, 1
  %.not.i.i = icmp eq i32 %14, 0
  %15 = getelementptr inbounds nuw i8, ptr %5, i64 256
  %16 = getelementptr inbounds nuw [16 x ptr], ptr %15, i64 0, i64 %10
  br i1 %.not.i.i, label %err_clear_data.exit.i, label %17

17:                                               ; preds = %7
  %18 = load ptr, ptr %16, align 8, !tbaa !7
  tail call void @CRYPTO_free(ptr noundef %18, ptr noundef nonnull @.str.7, i32 noundef 25) #10
  br label %err_clear_data.exit.i

err_clear_data.exit.i:                            ; preds = %7, %17
  store ptr null, ptr %16, align 8, !tbaa !7
  %19 = getelementptr inbounds nuw i8, ptr %5, i64 384
  %20 = getelementptr inbounds nuw [16 x i64], ptr %19, i64 0, i64 %10
  store i64 0, ptr %20, align 8, !tbaa !10
  store i32 0, ptr %12, align 4, !tbaa !3
  %.pre.i = load i32, ptr %8, align 8, !tbaa !26
  %.phi.trans.insert.i = sext i32 %.pre.i to i64
  %.phi.trans.insert11.i = getelementptr inbounds nuw [16 x i32], ptr %11, i64 0, i64 %.phi.trans.insert.i
  %.pre12.i = load i32, ptr %.phi.trans.insert11.i, align 4, !tbaa !3
  %.pre13.i = and i32 %.pre12.i, 1
  %21 = icmp eq i32 %.pre13.i, 0
  br i1 %21, label %err_set_data.exit.i, label %22

22:                                               ; preds = %err_clear_data.exit.i
  %23 = getelementptr inbounds nuw i8, ptr %5, i64 256
  %24 = getelementptr inbounds nuw [16 x ptr], ptr %23, i64 0, i64 %.phi.trans.insert.i
  %25 = load ptr, ptr %24, align 8, !tbaa !7
  tail call void @CRYPTO_free(ptr noundef %25, ptr noundef nonnull @.str.7, i32 noundef 78) #10
  br label %err_set_data.exit.i

err_set_data.exit.i:                              ; preds = %22, %err_clear_data.exit.i
  %26 = getelementptr inbounds nuw i8, ptr %5, i64 256
  %27 = getelementptr inbounds nuw [16 x ptr], ptr %26, i64 0, i64 %.phi.trans.insert.i
  store ptr %0, ptr %27, align 8, !tbaa !7
  %28 = getelementptr inbounds nuw i8, ptr %5, i64 384
  %29 = getelementptr inbounds nuw [16 x i64], ptr %28, i64 0, i64 %.phi.trans.insert.i
  store i64 %4, ptr %29, align 8, !tbaa !10
  store i32 %1, ptr %.phi.trans.insert11.i, align 4, !tbaa !3
  br label %err_set_error_data_int.exit

err_set_error_data_int.exit:                      ; preds = %2, %err_set_data.exit.i
  ret void
}